	.section	__TEXT,__text,regular,pure_instructions
	.build_version macos, 11, 0
	.private_extern	__ZN3std2rt10lang_start17h758b63565a96ecbeE
	.globl	__ZN3std2rt10lang_start17h758b63565a96ecbeE
	.p2align	2
__ZN3std2rt10lang_start17h758b63565a96ecbeE:
	.cfi_startproc
	sub	sp, sp, #32
	.cfi_def_cfa_offset 32
	stp	x29, x30, [sp, #16]
	add	x29, sp, #16
	.cfi_def_cfa w29, 16
	.cfi_offset w30, -8
	.cfi_offset w29, -16
	mov	x4, x3
	mov	x3, x2
	mov	x2, x1
	str	x0, [sp, #8]
Lloh0:
	adrp	x1, l___unnamed_1@PAGE
Lloh1:
	add	x1, x1, l___unnamed_1@PAGEOFF
	add	x0, sp, #8
	bl	__ZN3std2rt19lang_start_internal17hacda2dedffd2edb4E
	.cfi_def_cfa wsp, 32
	ldp	x29, x30, [sp, #16]
	add	sp, sp, #32
	.cfi_def_cfa_offset 0
	.cfi_restore w30
	.cfi_restore w29
	ret
	.loh AdrpAdd	Lloh0, Lloh1
	.cfi_endproc

	.p2align	2
__ZN3std2rt10lang_start28_$u7b$$u7b$closure$u7d$$u7d$17h92d301b6fcb2b7cbE:
	.cfi_startproc
	stp	x29, x30, [sp, #-16]!
	.cfi_def_cfa_offset 16
	mov	x29, sp
	.cfi_def_cfa w29, 16
	.cfi_offset w30, -8
	.cfi_offset w29, -16
	ldr	x0, [x0]
	bl	__ZN3std3sys9backtrace28__rust_begin_short_backtrace17hceba0ca7bb5fb89aE
	mov	w0, #0
	.cfi_def_cfa wsp, 16
	ldp	x29, x30, [sp], #16
	.cfi_def_cfa_offset 0
	.cfi_restore w30
	.cfi_restore w29
	ret
	.cfi_endproc

	.p2align	2
__ZN3std3sys9backtrace28__rust_begin_short_backtrace17hceba0ca7bb5fb89aE:
	.cfi_startproc
	stp	x29, x30, [sp, #-16]!
	.cfi_def_cfa_offset 16
	mov	x29, sp
	.cfi_def_cfa w29, 16
	.cfi_offset w30, -8
	.cfi_offset w29, -16
	blr	x0
	; InlineAsm Start
	; InlineAsm End
	.cfi_def_cfa wsp, 16
	ldp	x29, x30, [sp], #16
	.cfi_def_cfa_offset 0
	.cfi_restore w30
	.cfi_restore w29
	ret
	.cfi_endproc

	.p2align	2
__ZN4core3ops8function6FnOnce40call_once$u7b$$u7b$vtable.shim$u7d$$u7d$17hb0642b93b35e3ed4E:
	.cfi_startproc
	stp	x29, x30, [sp, #-16]!
	.cfi_def_cfa_offset 16
	mov	x29, sp
	.cfi_def_cfa w29, 16
	.cfi_offset w30, -8
	.cfi_offset w29, -16
	ldr	x0, [x0]
	bl	__ZN3std3sys9backtrace28__rust_begin_short_backtrace17hceba0ca7bb5fb89aE
	mov	w0, #0
	.cfi_def_cfa wsp, 16
	ldp	x29, x30, [sp], #16
	.cfi_def_cfa_offset 0
	.cfi_restore w30
	.cfi_restore w29
	ret
	.cfi_endproc

	.p2align	2
__ZN4main4main17h208b3a099d3e7bcfE:
	.cfi_startproc
	sub	sp, sp, #64
	.cfi_def_cfa_offset 64
	stp	x29, x30, [sp, #48]
	add	x29, sp, #48
	.cfi_def_cfa w29, 16
	.cfi_offset w30, -8
	.cfi_offset w29, -16
Lloh2:
	adrp	x8, l___unnamed_2@PAGE
Lloh3:
	add	x8, x8, l___unnamed_2@PAGEOFF
	mov	w9, #1
	stp	x8, x9, [sp]
	mov	w8, #8
	stp	xzr, xzr, [sp, #24]
	str	x8, [sp, #16]
	mov	x0, sp
	bl	__ZN3std2io5stdio6_print17h9989baa6d5472142E
	.cfi_def_cfa wsp, 64
	ldp	x29, x30, [sp, #48]
	add	sp, sp, #64
	.cfi_def_cfa_offset 0
	.cfi_restore w30
	.cfi_restore w29
	ret
	.loh AdrpAdd	Lloh2, Lloh3
	.cfi_endproc

	.globl	_main
	.p2align	2
_main:
	.cfi_startproc
	sub	sp, sp, #32
	stp	x29, x30, [sp, #16]
	add	x29, sp, #16
	.cfi_def_cfa w29, 16
	.cfi_offset w30, -8
	.cfi_offset w29, -16
	mov	x3, x1
	sxtw	x2, w0
Lloh4:
	adrp	x8, __ZN4main4main17h208b3a099d3e7bcfE@PAGE
Lloh5:
	add	x8, x8, __ZN4main4main17h208b3a099d3e7bcfE@PAGEOFF
	str	x8, [sp, #8]
Lloh6:
	adrp	x1, l___unnamed_1@PAGE
Lloh7:
	add	x1, x1, l___unnamed_1@PAGEOFF
	add	x0, sp, #8
	mov	w4, #0
	bl	__ZN3std2rt19lang_start_internal17hacda2dedffd2edb4E
	ldp	x29, x30, [sp, #16]
	add	sp, sp, #32
	ret
	.loh AdrpAdd	Lloh6, Lloh7
	.loh AdrpAdd	Lloh4, Lloh5
	.cfi_endproc

	.section	__DATA,__const
	.p2align	3, 0x0
l___unnamed_1:
	.asciz	"\000\000\000\000\000\000\000\000\b\000\000\000\000\000\000\000\b\000\000\000\000\000\000"
	.quad	__ZN4core3ops8function6FnOnce40call_once$u7b$$u7b$vtable.shim$u7d$$u7d$17hb0642b93b35e3ed4E
	.quad	__ZN3std2rt10lang_start28_$u7b$$u7b$closure$u7d$$u7d$17h92d301b6fcb2b7cbE
	.quad	__ZN3std2rt10lang_start28_$u7b$$u7b$closure$u7d$$u7d$17h92d301b6fcb2b7cbE

	.section	__TEXT,__const
l___unnamed_3:
	.ascii	"Hello, world!\n"

	.section	__DATA,__const
	.p2align	3, 0x0
l___unnamed_2:
	.quad	l___unnamed_3
	.asciz	"\016\000\000\000\000\000\000"

.subsections_via_symbols
